target datalayout = "e-m:e-p270:32:32-p271:32:32-p272:64:64-i64:64-i128:128-f80:128-n8:16:32:64-S128"
target triple = "x86_64-pc-linux-gnu"

%struct.object_id = type { [32 x i8], i32 }
%struct.used_atom = type { i32, ptr, i32, i32, %union.anon }
%union.anon = type { %struct.anon.1 }
%struct.anon.1 = type { i32, %struct.process_trailer_options, ptr, i32 }
%struct.process_trailer_options = type { i32, i32, i32, i32, i32, i32, i32, i32, ptr, ptr, ptr, ptr }
%struct.ref_array_item = type { %struct.object_id, ptr, i32, i32, ptr, ptr, ptr, ptr, ptr, [0 x i8] }
%struct.ref_array = type { i32, i32, ptr, ptr, ptr, i64 }
%struct.anon.9 = type { ptr, ptr }
%struct.ahead_behind_count = type { i64, i64, i32, i32 }

@used_atom = internal global ptr null, align 8
@used_atom_cnt = internal global i32 0, align 4
@.str.143 = private unnamed_addr constant [27 x i8] c"size_t overflow: %lu * %lu\00", align 1
@.str.144 = private unnamed_addr constant [27 x i8] c"size_t overflow: %lu + %lu\00", align 1

; Function Attrs: inlinehint nounwind uwtable
define internal i64 @st_mult(i64 noundef %0, i64 noundef %1) #1 {
  %3 = alloca i64, align 8
  %4 = alloca i64, align 8
  store i64 %0, ptr %3, align 8, !tbaa !71
  store i64 %1, ptr %4, align 8, !tbaa !71
  %5 = load i64, ptr %3, align 8, !tbaa !71
  %6 = icmp ne i64 %5, 0
  br i1 %6, label %7, label %15

7:                                                ; preds = %2
  %8 = load i64, ptr %4, align 8, !tbaa !71
  %9 = load i64, ptr %3, align 8, !tbaa !71
  %10 = udiv i64 -1, %9
  %11 = icmp ugt i64 %8, %10
  br i1 %11, label %12, label %15

12:                                               ; preds = %7
  %13 = load i64, ptr %3, align 8, !tbaa !71
  %14 = load i64, ptr %4, align 8, !tbaa !71
  call void (ptr, ...) @die(ptr noundef @.str.143, i64 noundef %13, i64 noundef %14) #13
  unreachable

15:                                               ; preds = %7, %2
  %16 = load i64, ptr %3, align 8, !tbaa !71
  %17 = load i64, ptr %4, align 8, !tbaa !71
  %18 = mul i64 %16, %17
  ret i64 %18
}

; Function Attrs: inlinehint nounwind uwtable
define internal i64 @st_add(i64 noundef %0, i64 noundef %1) #1 {
  %3 = alloca i64, align 8
  %4 = alloca i64, align 8
  store i64 %0, ptr %3, align 8, !tbaa !71
  store i64 %1, ptr %4, align 8, !tbaa !71
  %5 = load i64, ptr %4, align 8, !tbaa !71
  %6 = load i64, ptr %3, align 8, !tbaa !71
  %7 = sub i64 -1, %6
  %8 = icmp ugt i64 %5, %7
  br i1 %8, label %9, label %12

9:                                                ; preds = %2
  %10 = load i64, ptr %3, align 8, !tbaa !71
  %11 = load i64, ptr %4, align 8, !tbaa !71
  call void (ptr, ...) @die(ptr noundef @.str.144, i64 noundef %10, i64 noundef %11) #13
  unreachable

12:                                               ; preds = %2
  %13 = load i64, ptr %3, align 8, !tbaa !71
  %14 = load i64, ptr %4, align 8, !tbaa !71
  %15 = add i64 %13, %14
  ret i64 %15
}

; Function Attrs: nounwind uwtable
define dso_local void @filter_ahead_behind(ptr noundef %0, ptr noundef %1) #0 {
  %3 = alloca ptr, align 8
  %4 = alloca ptr, align 8
  %5 = alloca ptr, align 8
  %6 = alloca i64, align 8
  %7 = alloca i64, align 8
  %8 = alloca i32, align 4
  %9 = alloca i64, align 8
  %10 = alloca i64, align 8
  %11 = alloca i64, align 8
  %12 = alloca i64, align 8
  %13 = alloca ptr, align 8
  %14 = alloca i64, align 8
  %15 = alloca ptr, align 8
  store ptr %0, ptr %3, align 8, !tbaa !56
  store ptr %1, ptr %4, align 8, !tbaa !66
  call void @llvm.lifetime.start.p0(i64 8, ptr %5) #11
  call void @llvm.lifetime.start.p0(i64 8, ptr %6) #11
  call void @llvm.lifetime.start.p0(i64 8, ptr %7) #11
  %16 = load ptr, ptr %4, align 8, !tbaa !66
  %17 = getelementptr inbounds nuw %struct.ref_array, ptr %16, i32 0, i32 0
  %18 = load i32, ptr %17, align 8, !tbaa !72
  %19 = icmp ne i32 %18, 0
  br i1 %19, label %21, label %20

20:                                               ; preds = %2
  store i32 1, ptr %8, align 4
  br label %189

21:                                               ; preds = %2
  call void @llvm.lifetime.start.p0(i64 8, ptr %9) #11
  store i64 0, ptr %6, align 8, !tbaa !71
  store i64 0, ptr %9, align 8, !tbaa !71
  br label %22

22:                                               ; preds = %39, %21
  %23 = load i64, ptr %9, align 8, !tbaa !71
  %24 = load i32, ptr @used_atom_cnt, align 4, !tbaa !15
  %25 = sext i32 %24 to i64
  %26 = icmp ult i64 %23, %25
  br i1 %26, label %28, label %27

27:                                               ; preds = %22
  store i32 2, ptr %8, align 4
  call void @llvm.lifetime.end.p0(i64 8, ptr %9) #11
  br label %42

28:                                               ; preds = %22
  %29 = load ptr, ptr @used_atom, align 8, !tbaa !26
  %30 = load i64, ptr %9, align 8, !tbaa !71
  %31 = getelementptr inbounds nuw %struct.used_atom, ptr %29, i64 %30
  %32 = getelementptr inbounds nuw %struct.used_atom, ptr %31, i32 0, i32 0
  %33 = load i32, ptr %32, align 8, !tbaa !28
  %34 = icmp eq i32 %33, 45
  br i1 %34, label %35, label %38

35:                                               ; preds = %28
  %36 = load i64, ptr %6, align 8, !tbaa !71
  %37 = add i64 %36, 1
  store i64 %37, ptr %6, align 8, !tbaa !71
  br label %38

38:                                               ; preds = %35, %28
  br label %39

39:                                               ; preds = %38
  %40 = load i64, ptr %9, align 8, !tbaa !71
  %41 = add i64 %40, 1
  store i64 %41, ptr %9, align 8, !tbaa !71
  br label %22, !llvm.loop !96

42:                                               ; preds = %27
  %43 = load i64, ptr %6, align 8, !tbaa !71
  %44 = icmp ne i64 %43, 0
  br i1 %44, label %46, label %45

45:                                               ; preds = %42
  store i32 1, ptr %8, align 4
  br label %189

46:                                               ; preds = %42
  %47 = load i64, ptr %6, align 8, !tbaa !71
  %48 = load ptr, ptr %4, align 8, !tbaa !66
  %49 = getelementptr inbounds nuw %struct.ref_array, ptr %48, i32 0, i32 0
  %50 = load i32, ptr %49, align 8, !tbaa !72
  %51 = sext i32 %50 to i64
  %52 = call i64 @st_add(i64 noundef %47, i64 noundef %51)
  %53 = call i64 @st_mult(i64 noundef 8, i64 noundef %52)
  %54 = call ptr @xmalloc(i64 noundef %53)
  store ptr %54, ptr %5, align 8, !tbaa !97
  call void @llvm.lifetime.start.p0(i64 8, ptr %10) #11
  store i64 0, ptr %10, align 8, !tbaa !71
  call void @llvm.lifetime.start.p0(i64 8, ptr %11) #11
  store i64 0, ptr %11, align 8, !tbaa !71
  br label %55

55:                                               ; preds = %80, %46
  %56 = load i64, ptr %10, align 8, !tbaa !71
  %57 = load i32, ptr @used_atom_cnt, align 4, !tbaa !15
  %58 = sext i32 %57 to i64
  %59 = icmp ult i64 %56, %58
  br i1 %59, label %61, label %60

60:                                               ; preds = %55
  store i32 5, ptr %8, align 4
  call void @llvm.lifetime.end.p0(i64 8, ptr %11) #11
  call void @llvm.lifetime.end.p0(i64 8, ptr %10) #11
  br label %83

61:                                               ; preds = %55
  %62 = load ptr, ptr @used_atom, align 8, !tbaa !26
  %63 = load i64, ptr %10, align 8, !tbaa !71
  %64 = getelementptr inbounds nuw %struct.used_atom, ptr %62, i64 %63
  %65 = getelementptr inbounds nuw %struct.used_atom, ptr %64, i32 0, i32 0
  %66 = load i32, ptr %65, align 8, !tbaa !28
  %67 = icmp eq i32 %66, 45
  br i1 %67, label %68, label %79

68:                                               ; preds = %61
  %69 = load ptr, ptr @used_atom, align 8, !tbaa !26
  %70 = load i64, ptr %10, align 8, !tbaa !71
  %71 = getelementptr inbounds nuw %struct.used_atom, ptr %69, i64 %70
  %72 = getelementptr inbounds nuw %struct.used_atom, ptr %71, i32 0, i32 4
  %73 = getelementptr inbounds nuw %struct.anon.9, ptr %72, i32 0, i32 1
  %74 = load ptr, ptr %73, align 8, !tbaa !14
  %75 = load ptr, ptr %5, align 8, !tbaa !97
  %76 = load i64, ptr %11, align 8, !tbaa !71
  %77 = add i64 %76, 1
  store i64 %77, ptr %11, align 8, !tbaa !71
  %78 = getelementptr inbounds nuw ptr, ptr %75, i64 %76
  store ptr %74, ptr %78, align 8, !tbaa !99
  br label %79

79:                                               ; preds = %68, %61
  br label %80

80:                                               ; preds = %79
  %81 = load i64, ptr %10, align 8, !tbaa !71
  %82 = add i64 %81, 1
  store i64 %82, ptr %10, align 8, !tbaa !71
  br label %55, !llvm.loop !101

83:                                               ; preds = %60
  %84 = load i64, ptr %6, align 8, !tbaa !71
  %85 = load ptr, ptr %4, align 8, !tbaa !66
  %86 = getelementptr inbounds nuw %struct.ref_array, ptr %85, i32 0, i32 0
  %87 = load i32, ptr %86, align 8, !tbaa !72
  %88 = sext i32 %87 to i64
  %89 = call i64 @st_mult(i64 noundef %84, i64 noundef %88)
  %90 = call i64 @st_mult(i64 noundef 24, i64 noundef %89)
  %91 = call ptr @xmalloc(i64 noundef %90)
  %92 = load ptr, ptr %4, align 8, !tbaa !66
  %93 = getelementptr inbounds nuw %struct.ref_array, ptr %92, i32 0, i32 4
  store ptr %91, ptr %93, align 8, !tbaa !88
  %94 = load i64, ptr %6, align 8, !tbaa !71
  store i64 %94, ptr %7, align 8, !tbaa !71
  %95 = load ptr, ptr %4, align 8, !tbaa !66
  %96 = getelementptr inbounds nuw %struct.ref_array, ptr %95, i32 0, i32 5
  store i64 0, ptr %96, align 8, !tbaa !102
  call void @llvm.lifetime.start.p0(i64 8, ptr %12) #11
  store i64 0, ptr %12, align 8, !tbaa !71
  br label %97

97:                                               ; preds = %175, %83
  %98 = load i64, ptr %12, align 8, !tbaa !71
  %99 = load ptr, ptr %4, align 8, !tbaa !66
  %100 = getelementptr inbounds nuw %struct.ref_array, ptr %99, i32 0, i32 0
  %101 = load i32, ptr %100, align 8, !tbaa !72
  %102 = sext i32 %101 to i64
  %103 = icmp ult i64 %98, %102
  br i1 %103, label %105, label %104

104:                                              ; preds = %97
  store i32 8, ptr %8, align 4
  call void @llvm.lifetime.end.p0(i64 8, ptr %12) #11
  br label %178

105:                                              ; preds = %97
  call void @llvm.lifetime.start.p0(i64 8, ptr %13) #11
  %106 = load ptr, ptr %4, align 8, !tbaa !66
  %107 = getelementptr inbounds nuw %struct.ref_array, ptr %106, i32 0, i32 2
  %108 = load ptr, ptr %107, align 8, !tbaa !78
  %109 = load i64, ptr %12, align 8, !tbaa !71
  %110 = getelementptr inbounds nuw ptr, ptr %108, i64 %109
  %111 = load ptr, ptr %110, align 8, !tbaa !69
  %112 = getelementptr inbounds nuw %struct.ref_array_item, ptr %111, i32 0, i32 9
  %113 = getelementptr inbounds [0 x i8], ptr %112, i64 0, i64 0
  store ptr %113, ptr %13, align 8, !tbaa !13
  %114 = load ptr, ptr %13, align 8, !tbaa !13
  %115 = call ptr @lookup_commit_reference_by_name(ptr noundef %114)
  %116 = load ptr, ptr %5, align 8, !tbaa !97
  %117 = load i64, ptr %7, align 8, !tbaa !71
  %118 = getelementptr inbounds nuw ptr, ptr %116, i64 %117
  store ptr %115, ptr %118, align 8, !tbaa !99
  %119 = load ptr, ptr %5, align 8, !tbaa !97
  %120 = load i64, ptr %7, align 8, !tbaa !71
  %121 = getelementptr inbounds nuw ptr, ptr %119, i64 %120
  %122 = load ptr, ptr %121, align 8, !tbaa !99
  %123 = icmp ne ptr %122, null
  br i1 %123, label %125, label %124

124:                                              ; preds = %105
  store i32 10, ptr %8, align 4
  br label %172

125:                                              ; preds = %105
  %126 = load i64, ptr %6, align 8, !tbaa !71
  %127 = call ptr @xcalloc(i64 noundef %126, i64 noundef 8)
  %128 = load ptr, ptr %4, align 8, !tbaa !66
  %129 = getelementptr inbounds nuw %struct.ref_array, ptr %128, i32 0, i32 2
  %130 = load ptr, ptr %129, align 8, !tbaa !78
  %131 = load i64, ptr %12, align 8, !tbaa !71
  %132 = getelementptr inbounds nuw ptr, ptr %130, i64 %131
  %133 = load ptr, ptr %132, align 8, !tbaa !69
  %134 = getelementptr inbounds nuw %struct.ref_array_item, ptr %133, i32 0, i32 7
  store ptr %127, ptr %134, align 8, !tbaa !94
  call void @llvm.lifetime.start.p0(i64 8, ptr %14) #11
  store i64 0, ptr %14, align 8, !tbaa !71
  br label %135

135:                                              ; preds = %166, %125
  %136 = load i64, ptr %14, align 8, !tbaa !71
  %137 = load i64, ptr %6, align 8, !tbaa !71
  %138 = icmp ult i64 %136, %137
  br i1 %138, label %140, label %139

139:                                              ; preds = %135
  store i32 11, ptr %8, align 4
  call void @llvm.lifetime.end.p0(i64 8, ptr %14) #11
  br label %169

140:                                              ; preds = %135
  call void @llvm.lifetime.start.p0(i64 8, ptr %15) #11
  %141 = load ptr, ptr %4, align 8, !tbaa !66
  %142 = getelementptr inbounds nuw %struct.ref_array, ptr %141, i32 0, i32 4
  %143 = load ptr, ptr %142, align 8, !tbaa !88
  %144 = load ptr, ptr %4, align 8, !tbaa !66
  %145 = getelementptr inbounds nuw %struct.ref_array, ptr %144, i32 0, i32 5
  %146 = load i64, ptr %145, align 8, !tbaa !102
  %147 = add i64 %146, 1
  store i64 %147, ptr %145, align 8, !tbaa !102
  %148 = getelementptr inbounds nuw %struct.ahead_behind_count, ptr %143, i64 %146
  store ptr %148, ptr %15, align 8, !tbaa !103
  %149 = load i64, ptr %7, align 8, !tbaa !71
  %150 = load ptr, ptr %15, align 8, !tbaa !103
  %151 = getelementptr inbounds nuw %struct.ahead_behind_count, ptr %150, i32 0, i32 0
  store i64 %149, ptr %151, align 8, !tbaa !104
  %152 = load i64, ptr %14, align 8, !tbaa !71
  %153 = load ptr, ptr %15, align 8, !tbaa !103
  %154 = getelementptr inbounds nuw %struct.ahead_behind_count, ptr %153, i32 0, i32 1
  store i64 %152, ptr %154, align 8, !tbaa !106
  %155 = load ptr, ptr %15, align 8, !tbaa !103
  %156 = load ptr, ptr %4, align 8, !tbaa !66
  %157 = getelementptr inbounds nuw %struct.ref_array, ptr %156, i32 0, i32 2
  %158 = load ptr, ptr %157, align 8, !tbaa !78
  %159 = load i64, ptr %12, align 8, !tbaa !71
  %160 = getelementptr inbounds nuw ptr, ptr %158, i64 %159
  %161 = load ptr, ptr %160, align 8, !tbaa !69
  %162 = getelementptr inbounds nuw %struct.ref_array_item, ptr %161, i32 0, i32 7
  %163 = load ptr, ptr %162, align 8, !tbaa !94
  %164 = load i64, ptr %14, align 8, !tbaa !71
  %165 = getelementptr inbounds nuw ptr, ptr %163, i64 %164
  store ptr %155, ptr %165, align 8, !tbaa !103
  call void @llvm.lifetime.end.p0(i64 8, ptr %15) #11
  br label %166

166:                                              ; preds = %140
  %167 = load i64, ptr %14, align 8, !tbaa !71
  %168 = add i64 %167, 1
  store i64 %168, ptr %14, align 8, !tbaa !71
  br label %135, !llvm.loop !107

169:                                              ; preds = %139
  %170 = load i64, ptr %7, align 8, !tbaa !71
  %171 = add i64 %170, 1
  store i64 %171, ptr %7, align 8, !tbaa !71
  store i32 0, ptr %8, align 4
  br label %172

172:                                              ; preds = %169, %124
  call void @llvm.lifetime.end.p0(i64 8, ptr %13) #11
  %173 = load i32, ptr %8, align 4
  switch i32 %173, label %192 [
    i32 0, label %174
    i32 10, label %175
  ]

174:                                              ; preds = %172
  br label %175

175:                                              ; preds = %174, %172
  %176 = load i64, ptr %12, align 8, !tbaa !71
  %177 = add i64 %176, 1
  store i64 %177, ptr %12, align 8, !tbaa !71
  br label %97, !llvm.loop !108

178:                                              ; preds = %104
  %179 = load ptr, ptr %3, align 8, !tbaa !56
  %180 = load ptr, ptr %5, align 8, !tbaa !97
  %181 = load i64, ptr %7, align 8, !tbaa !71
  %182 = load ptr, ptr %4, align 8, !tbaa !66
  %183 = getelementptr inbounds nuw %struct.ref_array, ptr %182, i32 0, i32 4
  %184 = load ptr, ptr %183, align 8, !tbaa !88
  %185 = load ptr, ptr %4, align 8, !tbaa !66
  %186 = getelementptr inbounds nuw %struct.ref_array, ptr %185, i32 0, i32 5
  %187 = load i64, ptr %186, align 8, !tbaa !102
  call void @ahead_behind(ptr noundef %179, ptr noundef %180, i64 noundef %181, ptr noundef %184, i64 noundef %187)
  %188 = load ptr, ptr %5, align 8, !tbaa !97
  call void @free(ptr noundef %188) #11
  store i32 0, ptr %8, align 4
  br label %189

189:                                              ; preds = %178, %45, %20
  call void @llvm.lifetime.end.p0(i64 8, ptr %7) #11
  call void @llvm.lifetime.end.p0(i64 8, ptr %6) #11
  call void @llvm.lifetime.end.p0(i64 8, ptr %5) #11
  %190 = load i32, ptr %8, align 4
  switch i32 %190, label %192 [
    i32 0, label %191
    i32 1, label %191
  ]

191:                                              ; preds = %189, %189
  ret void

192:                                              ; preds = %189, %172
  unreachable
}