; Function Attrs: nounwind uwtable
define dso_local void @filter_ahead_behind(ptr noundef %0, ptr noundef captures(none) %1) local_unnamed_addr #0 {
  %3 = load i32, ptr %1, align 8, !tbaa !60
  %.not = icmp eq i32 %3, 0
  br i1 %.not, label %._crit_edge.thread, label %.preheader

.preheader:                                       ; preds = %2
  %4 = load i32, ptr @used_atom_cnt, align 4, !tbaa !4
  %5 = sext i32 %4 to i64
  %.not79 = icmp eq i32 %4, 0
  br i1 %.not79, label %._crit_edge.thread, label %.lr.ph

.lr.ph:                                           ; preds = %.preheader
  %6 = load ptr, ptr @used_atom, align 8, !tbaa !25
  br label %7

._crit_edge:                                      ; preds = %7
  %.not59 = icmp eq i64 %spec.select, 0
  br i1 %.not59, label %._crit_edge.thread, label %13

7:                                                ; preds = %.lr.ph, %7
  %.068 = phi i64 [ 0, %.lr.ph ], [ %spec.select, %7 ]
  %.05867 = phi i64 [ 0, %.lr.ph ], [ %12, %7 ]
  %8 = getelementptr inbounds nuw %struct.used_atom, ptr %6, i64 %.05867
  %9 = load i32, ptr %8, align 8, !tbaa !27
  %10 = icmp eq i32 %9, 45
  %11 = zext i1 %10 to i64
  %spec.select = add i64 %.068, %11
  %12 = add nuw i64 %.05867, 1
  %exitcond.not = icmp eq i64 %12, %5
  br i1 %exitcond.not, label %._crit_edge, label %7, !llvm.loop !86

13:                                               ; preds = %._crit_edge
  %14 = sext i32 %3 to i64
  %15 = xor i64 %spec.select, -1
  %16 = icmp ugt i64 %14, %15
  br i1 %16, label %17, label %st_add.exit

17:                                               ; preds = %13
  tail call void (ptr, ...) @die(ptr noundef nonnull @.str.144, i64 noundef %spec.select, i64 noundef %14) #25
  unreachable

st_add.exit:                                      ; preds = %13
  %18 = add i64 %spec.select, %14
  %mul.ov.i = icmp ugt i64 %18, 2305843009213693951
  br i1 %mul.ov.i, label %19, label %st_mult.exit

19:                                               ; preds = %st_add.exit
  tail call void (ptr, ...) @die(ptr noundef nonnull @.str.143, i64 noundef 8, i64 noundef %18) #25
  unreachable

st_mult.exit:                                     ; preds = %st_add.exit
  %20 = shl nuw i64 %18, 3
  %21 = tail call ptr @xmalloc(i64 noundef %20) #23
  %22 = load i32, ptr @used_atom_cnt, align 4, !tbaa !4
  %23 = sext i32 %22 to i64
  %.not80 = icmp eq i32 %22, 0
  br i1 %.not80, label %._crit_edge72, label %.lr.ph71

.lr.ph71:                                         ; preds = %st_mult.exit
  %24 = load ptr, ptr @used_atom, align 8, !tbaa !25
  br label %36

._crit_edge72:                                    ; preds = %45, %st_mult.exit
  %25 = load i32, ptr %1, align 8, !tbaa !60
  %26 = sext i32 %25 to i64
  %mul.i61 = tail call { i64, i1 } @llvm.umul.with.overflow.i64(i64 range(i64 1, 0) %spec.select, i64 %26)
  %mul.ov.i62 = extractvalue { i64, i1 } %mul.i61, 1
  br i1 %mul.ov.i62, label %27, label %st_mult.exit63

27:                                               ; preds = %._crit_edge72
  tail call void (ptr, ...) @die(ptr noundef nonnull @.str.143, i64 noundef range(i64 1, 0) %spec.select, i64 noundef %26) #25
  unreachable

st_mult.exit63:                                   ; preds = %._crit_edge72
  %28 = mul i64 %spec.select, %26
  %mul.ov.i65 = icmp ugt i64 %28, 768614336404564650
  br i1 %mul.ov.i65, label %29, label %st_mult.exit66

29:                                               ; preds = %st_mult.exit63
  tail call void (ptr, ...) @die(ptr noundef nonnull @.str.143, i64 noundef 24, i64 noundef %28) #25
  unreachable

st_mult.exit66:                                   ; preds = %st_mult.exit63
  %30 = mul nuw i64 %28, 24
  %31 = tail call ptr @xmalloc(i64 noundef %30) #23
  %32 = getelementptr inbounds nuw i8, ptr %1, i64 24
  store ptr %31, ptr %32, align 8, !tbaa !76
  %33 = getelementptr inbounds nuw i8, ptr %1, i64 32
  store i64 0, ptr %33, align 8, !tbaa !87
  %34 = load i32, ptr %1, align 8, !tbaa !60
  %.not81 = icmp eq i32 %34, 0
  br i1 %.not81, label %._crit_edge77, label %.lr.ph76

.lr.ph76:                                         ; preds = %st_mult.exit66
  %35 = getelementptr inbounds nuw i8, ptr %1, i64 8
  %umax = tail call i64 @llvm.umax.i64(i64 %spec.select, i64 1)
  br label %49

36:                                               ; preds = %.lr.ph71, %45
  %.05570 = phi i64 [ 0, %.lr.ph71 ], [ %.156, %45 ]
  %.05769 = phi i64 [ 0, %.lr.ph71 ], [ %46, %45 ]
  %37 = getelementptr inbounds nuw %struct.used_atom, ptr %24, i64 %.05769
  %38 = load i32, ptr %37, align 8, !tbaa !27
  %39 = icmp eq i32 %38, 45
  br i1 %39, label %40, label %45

40:                                               ; preds = %36
  %41 = getelementptr inbounds nuw i8, ptr %37, i64 32
  %42 = load ptr, ptr %41, align 8, !tbaa !15
  %43 = add i64 %.05570, 1
  %44 = getelementptr inbounds nuw ptr, ptr %21, i64 %.05570
  store ptr %42, ptr %44, align 8, !tbaa !88
  br label %45

45:                                               ; preds = %36, %40
  %.156 = phi i64 [ %43, %40 ], [ %.05570, %36 ]
  %46 = add nuw i64 %.05769, 1
  %exitcond82.not = icmp eq i64 %46, %23
  br i1 %exitcond82.not, label %._crit_edge72, label %36, !llvm.loop !90

._crit_edge77.loopexit:                           ; preds = %72
  %.pre = load ptr, ptr %32, align 8, !tbaa !76
  %.pre84 = load i64, ptr %33, align 8, !tbaa !87
  br label %._crit_edge77

._crit_edge77:                                    ; preds = %._crit_edge77.loopexit, %st_mult.exit66
  %47 = phi i64 [ 0, %st_mult.exit66 ], [ %.pre84, %._crit_edge77.loopexit ]
  %48 = phi ptr [ %31, %st_mult.exit66 ], [ %.pre, %._crit_edge77.loopexit ]
  %.052.lcssa = phi i64 [ %spec.select, %st_mult.exit66 ], [ %.153, %._crit_edge77.loopexit ]
  tail call void @ahead_behind(ptr noundef %0, ptr noundef %21, i64 noundef %.052.lcssa, ptr noundef %48, i64 noundef %47) #23
  tail call void @free(ptr noundef %21) #23
  br label %._crit_edge.thread

49:                                               ; preds = %.lr.ph76, %72
  %.05275 = phi i64 [ %spec.select, %.lr.ph76 ], [ %.153, %72 ]
  %.05474 = phi i64 [ 0, %.lr.ph76 ], [ %73, %72 ]
  %50 = load ptr, ptr %35, align 8, !tbaa !66
  %51 = getelementptr inbounds nuw ptr, ptr %50, i64 %.05474
  %52 = load ptr, ptr %51, align 8, !tbaa !67
  %53 = getelementptr inbounds nuw i8, ptr %52, i64 96
  %54 = tail call ptr @lookup_commit_reference_by_name(ptr noundef nonnull %53) #23
  %55 = getelementptr inbounds nuw ptr, ptr %21, i64 %.05275
  store ptr %54, ptr %55, align 8, !tbaa !88
  %.not60 = icmp eq ptr %54, null
  br i1 %.not60, label %72, label %56

56:                                               ; preds = %49
  %57 = tail call ptr @xcalloc(i64 noundef %spec.select, i64 noundef 8) #23
  %58 = load ptr, ptr %35, align 8, !tbaa !66
  %59 = getelementptr inbounds nuw ptr, ptr %58, i64 %.05474
  %60 = load ptr, ptr %59, align 8, !tbaa !67
  %61 = getelementptr inbounds nuw i8, ptr %60, i64 80
  store ptr %57, ptr %61, align 8, !tbaa !82
  %.promoted = load i64, ptr %33, align 8, !tbaa !87
  br label %64

62:                                               ; preds = %64
  store i64 %67, ptr %33, align 8, !tbaa !87
  %63 = add i64 %.05275, 1
  br label %72

64:                                               ; preds = %56, %64
  %.05173 = phi i64 [ 0, %56 ], [ %71, %64 ]
  %65 = phi i64 [ %.promoted, %56 ], [ %67, %64 ]
  %66 = load ptr, ptr %32, align 8, !tbaa !76
  %67 = add i64 %65, 1
  %68 = getelementptr inbounds nuw %struct.ahead_behind_count, ptr %66, i64 %65
  store i64 %.05275, ptr %68, align 8, !tbaa !91
  %69 = getelementptr inbounds nuw i8, ptr %68, i64 8
  store i64 %.05173, ptr %69, align 8, !tbaa !93
  %70 = getelementptr inbounds nuw ptr, ptr %57, i64 %.05173
  store ptr %68, ptr %70, align 8, !tbaa !94
  %71 = add nuw i64 %.05173, 1
  %exitcond83.not = icmp eq i64 %71, %umax
  br i1 %exitcond83.not, label %62, label %64, !llvm.loop !95

72:                                               ; preds = %49, %62
  %.153 = phi i64 [ %63, %62 ], [ %.05275, %49 ]
  %73 = add nuw i64 %.05474, 1
  %74 = load i32, ptr %1, align 8, !tbaa !60
  %75 = sext i32 %74 to i64
  %76 = icmp ult i64 %73, %75
  br i1 %76, label %49, label %._crit_edge77.loopexit, !llvm.loop !96

._crit_edge.thread:                               ; preds = %.preheader, %._crit_edge, %2, %._crit_edge77
  ret void
}